ctraits.traits
__newobj__
p0
(ccytoflowgui.workflow
Workflow
p1
tp2
Rp3
(dp4
S'__traits_version__'
p5
S'4.5.0'
p6
sS'selected'
p7
g0
(ccytoflowgui.workflow_item
WorkflowItem
p8
tp9
Rp10
(dp11
g5
g6
sS'default_view'
p12
NsS'views'
p13
ccopy_reg
_reconstructor
p14
(ctraits.trait_handlers
TraitListObject
p15
c__builtin__
list
p16
(lp17
g0
(cview_plugins.scatterplot
ScatterplotPluginView
p18
tp19
Rp20
(dp21
S'subset'
p22
S''
p23
sg5
g6
sS'name'
p24
g23
sS'xchannel'
p25
S'SSC-A'
p26
sS'ychannel'
p27
S'FSC-A'
p28
sS'yfacet'
p29
S'EYFP'
p30
sS'huefacet'
p31
S'EBFP'
p32
sS'handler_factory'
p33
cview_plugins.scatterplot
ScatterplotHandler
p34
sS'xfacet'
p35
S'mKate'
p36
sbatp37
Rp38
(dp39
S'name_items'
p40
S'views_items'
p41
sg24
g13
sbsS'current_view'
p42
g20
sS'next'
p43
g0
(g8
tp44
Rp45
(dp46
g5
g6
sg12
g0
(cop_plugins.polygon
PolygonSelectionView
p47
tp48
Rp49
(dp50
g5
g6
sg33
cop_plugins.polygon
PolygonViewHandler
p51
sS'vertices'
p52
g14
(g15
g16
(lp53
(cnumpy.core.multiarray
scalar
p54
(cnumpy
dtype
p55
(S'f8'
p56
I0
I1
tp57
Rp58
(I3
S'<'
p59
NNNI-1
I-1
I0
tp60
bS'\xe0\x16\x96\xd0\x9b\x0f\x80@'
p61
tp62
Rp63
g54
(g58
S'\xde\x99\x00\x15\xf5%\xc0@'
p64
tp65
Rp66
tp67
a(g54
(g58
S'`\x8691\xfe\x9e\x82@'
p68
tp69
Rp70
g54
(g58
S'\x98ZO\xbd\xc8\xd7\xbc@'
p71
tp72
Rp73
tp74
a(g54
(g58
S'\x9c\xd7\x89SW\x0b\x95@'
p75
tp76
Rp77
g54
(g58
S'\xe6\xef\x837\x14\xd3\xbb@'
p78
tp79
Rp80
tp81
a(g54
(g58
S'>\xd4e\xe64\x15\xad@'
p82
tp83
Rp84
g54
(g58
S'\xce-|3J \xc0@'
p85
tp86
Rp87
tp88
a(g54
(g58
S'\xdeg\xe0\xae\xbe\x00\xaf@'
p89
tp90
Rp91
g54
(g58
S'\xf8\xf8j\xc5UR\xc1@'
p92
tp93
Rp94
tp95
a(g54
(g58
S'v=\xcd\xf4\xbe\xae\xa6@'
p96
tp97
Rp98
g54
(g58
S'2\xd6GEZ\xc9\xc1@'
p99
tp100
Rp101
tp102
a(g54
(g58
S'\xb8\x06\xf4z\x92\xb2\x92@'
p103
tp104
Rp105
g54
(g58
S"\xcc\x87\x12'\xfc\xe0\xc0@"
p106
tp107
Rp108
tp109
a(g54
(g58
S'(\x1d\xd2"t\x05\x89@'
p110
tp111
Rp112
g54
(g58
S'\xcdZG-\xa3\x80\xc0@'
p113
tp114
Rp115
tp116
atp117
Rp118
(dp119
g40
S'vertices_items'
p120
sg24
g52
sbsS'view'
p121
g0
(ccytoflow.views.scatterplot
ScatterplotView
p122
tp123
Rp124
(dp125
g22
g23
sg5
g6
sg24
S'P'
p126
sg25
g26
sg27
g28
sg29
g23
sg31
g23
sg35
g23
sbsbsg13
g14
(g15
g16
(lp127
g49
atp128
Rp129
(dp130
g40
S'views_items'
p131
sg24
g13
sbsg42
g49
sg43
NsS'channels'
p132
g14
(g15
g16
(lp133
g28
aS'FSC-H'
p134
aS'FSC-W'
p135
ag26
aS'SSC-H'
p136
aS'SSC-W'
p137
aS'Pacific Blue-A'
p138
aS'AmCyan-A'
p139
aS'PE-A'
p140
aS'PE-Texas Red-A'
p141
aS'FITC-A'
p142
aS'PerCP-Cy5-5-A'
p143
aS'Time'
p144
atp145
Rp146
(dp147
g40
S'channels_items'
p148
sg24
g132
sbsS'operation'
p149
g0
(ccytoflow.operations.polygon
PolygonOp
p150
tp151
Rp152
(dp153
g5
g6
sg24
g126
sg25
g26
sg52
g14
(g15
g16
(lp154
g67
ag74
ag81
ag88
ag95
ag102
ag109
ag116
atp155
Rp156
(dp157
g40
S'vertices_items'
p158
sg24
g52
sbsg27
g28
sg33
cop_plugins.polygon
PolygonHandler
p159
sbsS'conditions'
p160
g14
(ctraits.trait_handlers
TraitDictObject
p161
c__builtin__
dict
p162
(dp163
g30
S'bool'
p164
sg36
g164
sg32
g164
sg126
S'bool'
p165
stp166
Rp167
(dp168
g40
S'conditions_items'
p169
sg24
g160
sbsS'previous'
p170
g10
sbsg132
g14
(g15
g16
(lp171
g28
ag134
ag135
ag26
ag136
ag137
ag138
ag139
ag140
ag141
ag142
ag143
ag144
atp172
Rp173
(dp174
g40
S'channels_items'
p175
sg24
g132
sbsg149
g0
(ccytoflow.operations.hlog
HlogTransformOp
p176
tp177
Rp178
(dp179
g132
g14
(g15
g16
(lp180
g26
ag28
ag139
ag141
ag142
atp181
Rp182
(dp183
g40
S'channels_items'
p184
sg24
g132
sbsg5
g6
sg33
cop_plugins.hlog
HLogHandler
p185
sg24
VH
p186
sbsg160
g14
(g161
g162
(dp187
g30
g164
sg36
g164
sg32
g164
stp188
Rp189
(dp190
g40
S'conditions_items'
p191
sg24
g160
sbsg170
g0
(g8
tp192
Rp193
(dp194
g5
g6
sg12
Nsg13
g14
(g15
g16
(lp195
g0
(g18
tp196
Rp197
(dp198
g22
g23
sg5
g6
sg24
VScatter
p199
sg25
S'FSC-A'
p200
sg27
S'SSC-A'
p201
sg29
g23
sg31
g23
sg33
g34
sg35
g23
sbatp202
Rp203
(dp204
g40
S'views_items'
p205
sg24
g13
sbsg42
g197
sg43
g10
sg132
g14
(g15
g16
(lp206
g28
ag134
ag135
ag26
ag136
ag137
ag138
ag139
ag140
ag141
ag142
ag143
ag144
atp207
Rp208
(dp209
g40
S'channels_items'
p210
sg24
g132
sbsg149
g0
(ccytoflow.operations.import_op
ImportOp
p211
tp212
Rp213
(dp214
g5
g6
sS'tubes'
p215
g14
(g15
g16
(lp216
g0
(ccytoflow.operations.import_op
Tube
p217
tp218
Rp219
(dp220
g5
g6
sS'tube'
p221
S'G7'
p222
sS'source'
p223
S'Controls'
p224
sS'file'
p225
VC:/Users/Ross/Dropbox (MIT)/Resource Sharing Project/Experiments/2015-05-18 Ross HeLa/2015-06-12 Repeat 96 Well/Controls_G7_G07_031.fcs
p226
sg160
g14
(g161
g162
(dp227
g30
I00
sg36
I00
sg32
I00
stp228
Rp229
(dp230
g40
S'conditions_items'
p231
sg24
g160
sbsS'col'
p232
I0
sS'row'
p233
g23
sbag0
(g217
tp234
Rp235
(dp236
g5
g6
sg221
S'G8'
p237
sg223
S'Controls'
p238
sg225
VC:/Users/Ross/Dropbox (MIT)/Resource Sharing Project/Experiments/2015-05-18 Ross HeLa/2015-06-12 Repeat 96 Well/Controls_G8_G08_032.fcs
p239
sg160
g14
(g161
g162
(dp240
g30
I00
sg36
I01
sg32
I00
stp241
Rp242
(dp243
g40
S'conditions_items'
p244
sg24
g160
sbsg232
I0
sg233
g23
sbag0
(g217
tp245
Rp246
(dp247
g5
g6
sg221
S'G9'
p248
sg223
S'Controls'
p249
sg225
VC:/Users/Ross/Dropbox (MIT)/Resource Sharing Project/Experiments/2015-05-18 Ross HeLa/2015-06-12 Repeat 96 Well/Controls_G9_G09_033.fcs
p250
sg160
g14
(g161
g162
(dp251
g30
I01
sg36
I00
sg32
I00
stp252
Rp253
(dp254
g40
S'conditions_items'
p255
sg24
g160
sbsg232
I0
sg233
g23
sbag0
(g217
tp256
Rp257
(dp258
g5
g6
sg221
S'G10'
p259
sg223
S'Controls'
p260
sg225
VC:/Users/Ross/Dropbox (MIT)/Resource Sharing Project/Experiments/2015-05-18 Ross HeLa/2015-06-12 Repeat 96 Well/Controls_G10_G10_034.fcs
p261
sg160
g14
(g161
g162
(dp262
g30
I00
sg36
I00
sg32
I01
stp263
Rp264
(dp265
g40
S'conditions_items'
p266
sg24
g160
sbsg232
I0
sg233
g23
sbag0
(g217
tp267
Rp268
(dp269
g5
g6
sg221
S'G11'
p270
sg223
S'Controls'
p271
sg225
VC:/Users/Ross/Dropbox (MIT)/Resource Sharing Project/Experiments/2015-05-18 Ross HeLa/2015-06-12 Repeat 96 Well/Controls_G11_G11_035.fcs
p272
sg160
g14
(g161
g162
(dp273
g30
I01
sg36
I01
sg32
I01
stp274
Rp275
(dp276
g40
S'conditions_items'
p277
sg24
g160
sbsg232
I0
sg233
g23
sbatp278
Rp279
(dp280
g40
S'tubes_items'
p281
sg24
g215
sbsS'coarse_events'
p282
I1000
sg33
ccytoflowgui.op_plugins.import_op
ImportHandler
p283
sS'coarse'
p284
I00
sg160
g14
(g161
g162
(dp285
g30
g164
sg36
g164
sg32
g164
stp286
Rp287
(dp288
g40
S'conditions_items'
p289
sg24
g160
sbsbsg160
g14
(g161
g162
(dp290
g30
g164
sg36
g164
sg32
g164
stp291
Rp292
(dp293
g40
S'conditions_items'
p294
sg24
g160
sbsg170
NsbsbsS'workflow'
p295
g14
(g15
g16
(lp296
g193
ag10
ag45
atp297
Rp298
(dp299
g40
S'workflow_items'
p300
sg24
g295
sbsb.